target datalayout = "e-m:e-p270:32:32-p271:32:32-p272:64:64-i64:64-i128:128-f80:128-n8:16:32:64-S128"
target triple = "x86_64-pc-linux-gnu"

@.str.24 = private unnamed_addr constant [34 x i8] c"../openssl/test/evp_libctx_test.c\00", align 1
@.str.32 = private unnamed_addr constant [4 x i8] c"ctx\00", align 1
@.str.33 = private unnamed_addr constant [35 x i8] c"EVP_CIPHER_CTX_get_block_size(ctx)\00", align 1
@.str.34 = private unnamed_addr constant [2 x i8] c"0\00", align 1
@.str.35 = private unnamed_addr constant [34 x i8] c"EVP_CIPHER_CTX_get_iv_length(ctx)\00", align 1

; Function Attrs: nounwind uwtable
define internal i32 @test_evp_cipher_api_safety() #0 {
  %1 = alloca i32, align 4
  %2 = alloca ptr, align 8
  call void @llvm.lifetime.start.p0(i64 4, ptr %1) #7
  store i32 0, ptr %1, align 4, !tbaa !9
  call void @llvm.lifetime.start.p0(i64 8, ptr %2) #7
  store ptr null, ptr %2, align 8, !tbaa !17
  %3 = call ptr @EVP_CIPHER_CTX_new()
  store ptr %3, ptr %2, align 8, !tbaa !17
  %4 = load ptr, ptr %2, align 8, !tbaa !17
  %5 = call i32 @test_ptr(ptr noundef @.str.24, i32 noundef 82, ptr noundef @.str.32, ptr noundef %4)
  %6 = icmp ne i32 %5, 0
  br i1 %6, label %8, label %7

7:                                                ; preds = %0
  br label %23

8:                                                ; preds = %0
  %9 = load ptr, ptr %2, align 8, !tbaa !17
  %10 = call i32 @EVP_CIPHER_CTX_get_block_size(ptr noundef %9)
  %11 = call i32 @test_int_eq(ptr noundef @.str.24, i32 noundef 89, ptr noundef @.str.33, ptr noundef @.str.34, i32 noundef %10, i32 noundef 0)
  %12 = icmp ne i32 %11, 0
  br i1 %12, label %14, label %13

13:                                               ; preds = %8
  br label %21

14:                                               ; preds = %8
  %15 = load ptr, ptr %2, align 8, !tbaa !17
  %16 = call i32 @EVP_CIPHER_CTX_get_iv_length(ptr noundef %15)
  %17 = call i32 @test_int_eq(ptr noundef @.str.24, i32 noundef 96, ptr noundef @.str.35, ptr noundef @.str.34, i32 noundef %16, i32 noundef 0)
  %18 = icmp ne i32 %17, 0
  br i1 %18, label %20, label %19

19:                                               ; preds = %14
  br label %21

20:                                               ; preds = %14
  store i32 1, ptr %1, align 4, !tbaa !9
  br label %21

21:                                               ; preds = %20, %19, %13
  %22 = load ptr, ptr %2, align 8, !tbaa !17
  call void @EVP_CIPHER_CTX_free(ptr noundef %22)
  br label %23

23:                                               ; preds = %21, %7
  %24 = load i32, ptr %1, align 4, !tbaa !9
  call void @llvm.lifetime.end.p0(i64 8, ptr %2) #7
  call void @llvm.lifetime.end.p0(i64 4, ptr %1) #7
  ret i32 %24
}