; Function Attrs: nounwind uwtable
define internal range(i32 0, 2) i32 @test_evp_cipher_api_safety() #1 {
  %1 = tail call ptr @EVP_CIPHER_CTX_new() #7
  %2 = tail call i32 @test_ptr(ptr noundef nonnull @.str.24, i32 noundef 82, ptr noundef nonnull @.str.32, ptr noundef %1) #7
  %.not = icmp eq i32 %2, 0
  br i1 %.not, label %10, label %3

3:                                                ; preds = %0
  %4 = tail call i32 @EVP_CIPHER_CTX_get_block_size(ptr noundef %1) #7
  %5 = tail call i32 @test_int_eq(ptr noundef nonnull @.str.24, i32 noundef 89, ptr noundef nonnull @.str.33, ptr noundef nonnull @.str.34, i32 noundef %4, i32 noundef 0) #7
  %.not4 = icmp eq i32 %5, 0
  br i1 %.not4, label %9, label %6

6:                                                ; preds = %3
  %7 = tail call i32 @EVP_CIPHER_CTX_get_iv_length(ptr noundef %1) #7
  %8 = tail call i32 @test_int_eq(ptr noundef nonnull @.str.24, i32 noundef 96, ptr noundef nonnull @.str.35, ptr noundef nonnull @.str.34, i32 noundef %7, i32 noundef 0) #7
  %.not5 = icmp ne i32 %8, 0
  %spec.select = zext i1 %.not5 to i32
  br label %9

9:                                                ; preds = %6, %3
  %.1 = phi i32 [ 0, %3 ], [ %spec.select, %6 ]
  tail call void @EVP_CIPHER_CTX_free(ptr noundef %1) #7
  br label %10

10:                                               ; preds = %0, %9
  %.0 = phi i32 [ %.1, %9 ], [ 0, %0 ]
  ret i32 %.0
}